; Function Attrs: mustprogress nounwind uwtable
define internal void @_ZNSt23_Sp_counted_ptr_inplaceIN4absl18container_internal12_GLOBAL__N_110AllocStateESaIvELN9__gnu_cxx12_Lock_policyE2EE10_M_disposeEv(ptr noundef nonnull align 8 dereferenceable(72) %this) unnamed_addr #7 align 2 personality ptr @__gxx_personality_v0 {
entry:
  %owned.i.i.i = getelementptr inbounds i8, ptr %this, i64 24
  %_M_parent.i.i.i.i.i.i.i = getelementptr inbounds i8, ptr %this, i64 40
  %0 = load ptr, ptr %_M_parent.i.i.i.i.i.i.i, align 8
  invoke void @_ZNSt8_Rb_treeIPvS0_St9_IdentityIS0_ESt4lessIS0_ESaIS0_EE8_M_eraseEPSt13_Rb_tree_nodeIS0_E(ptr noundef nonnull align 8 dereferenceable(48) %owned.i.i.i, ptr noundef %0)
          to label %_ZNSt16allocator_traitsISaIvEE7destroyIN4absl18container_internal12_GLOBAL__N_110AllocStateEEEvRS0_PT_.exit unwind label %terminate.lpad.i.i.i.i.i

terminate.lpad.i.i.i.i.i:                         ; preds = %entry
  %1 = landingpad { ptr, i32 }
          catch ptr null
  %2 = extractvalue { ptr, i32 } %1, 0
  tail call void @__clang_call_terminate(ptr %2) #30
  unreachable

_ZNSt16allocator_traitsISaIvEE7destroyIN4absl18container_internal12_GLOBAL__N_110AllocStateEEEvRS0_PT_.exit: ; preds = %entry
  ret void
}